; Function Attrs: mustprogress uwtable
define void @_ZN17grpc_event_engine12experimental22WorkStealingThreadPool26WorkStealingThreadPoolImpl10SetForkingEb(ptr nocapture noundef nonnull align 8 dereferenceable(632) %this, i1 noundef zeroext %is_forking) local_unnamed_addr #3 align 2 {
entry:
  %forking_ = getelementptr inbounds i8, ptr %this, i64 225
  %frombool.i = zext i1 %is_forking to i8
  %0 = atomicrmw xchg ptr %forking_, i8 %frombool.i seq_cst, align 1
  %1 = and i8 %0, 1
  %tobool3.i.i = icmp ne i8 %1, 0
  %2 = xor i1 %tobool3.i.i, %is_forking
  br i1 %2, label %do.end, label %if.then

if.then:                                          ; preds = %entry
  tail call void @gpr_assertion_failed(ptr noundef nonnull @.str, i32 noundef 246, ptr noundef nonnull @.str.7) #25
  unreachable

do.end:                                           ; preds = %entry
  ret void
}